/*
 * Intel ACPI Component Architecture
 * AML/ASL+ Disassembler version 20190509 (64-bit version)
 * Copyright (c) 2000 - 2019 Intel Corporation
 * 
 * Disassembly of iort.dat, Tue Aug  2 11:52:54 2022
 *
 * ACPI Data Table [IORT]
 *
 * Format: [HexOffset DecimalOffset ByteLength]  FieldName : FieldValue
 */

[000h 0000   4]                    Signature : "IORT"    [IO Remapping Table]
[004h 0004   4]                 Table Length : 00000498
[008h 0008   1]                     Revision : 00
[009h 0009   1]                     Checksum : 95
[00Ah 0010   6]                       Oem ID : "Ampere"
[010h 0016   8]                 Oem Table ID : "Altra   "
[018h 0024   4]                 Oem Revision : 00000002
[01Ch 0028   4]              Asl Compiler ID : "AMP."
[020h 0032   4]        Asl Compiler Revision : 01000013

[024h 0036   4]                   Node Count : 00000012
[028h 0040   4]                  Node Offset : 00000030
[02Ch 0044   4]                     Reserved : 00000000

[030h 0048   1]                         Type : 00
[031h 0049   2]                       Length : 0018
[033h 0051   1]                     Revision : 00
[034h 0052   4]                     Reserved : 00000000
[038h 0056   4]                Mapping Count : 00000000
[03Ch 0060   4]               Mapping Offset : 00000000

[040h 0064   4]                     ItsCount : 00000001
[044h 0068   4]                  Identifiers : 00000000

[048h 0072   1]                         Type : 00
[049h 0073   2]                       Length : 0018
[04Bh 0075   1]                     Revision : 00
[04Ch 0076   4]                     Reserved : 00000000
[050h 0080   4]                Mapping Count : 00000000
[054h 0084   4]               Mapping Offset : 00000000

[058h 0088   4]                     ItsCount : 00000001
[05Ch 0092   4]                  Identifiers : 00000001

[060h 0096   1]                         Type : 00
[061h 0097   2]                       Length : 0018
[063h 0099   1]                     Revision : 00
[064h 0100   4]                     Reserved : 00000000
[068h 0104   4]                Mapping Count : 00000000
[06Ch 0108   4]               Mapping Offset : 00000000

[070h 0112   4]                     ItsCount : 00000001
[074h 0116   4]                  Identifiers : 00000003

[078h 0120   1]                         Type : 00
[079h 0121   2]                       Length : 0018
[07Bh 0123   1]                     Revision : 00
[07Ch 0124   4]                     Reserved : 00000000
[080h 0128   4]                Mapping Count : 00000000
[084h 0132   4]               Mapping Offset : 00000000

[088h 0136   4]                     ItsCount : 00000001
[08Ch 0140   4]                  Identifiers : 00000004

[090h 0144   1]                         Type : 00
[091h 0145   2]                       Length : 0018
[093h 0147   1]                     Revision : 00
[094h 0148   4]                     Reserved : 00000000
[098h 0152   4]                Mapping Count : 00000000
[09Ch 0156   4]               Mapping Offset : 00000000

[0A0h 0160   4]                     ItsCount : 00000001
[0A4h 0164   4]                  Identifiers : 00000006

[0A8h 0168   1]                         Type : 00
[0A9h 0169   2]                       Length : 0018
[0ABh 0171   1]                     Revision : 00
[0ACh 0172   4]                     Reserved : 00000000
[0B0h 0176   4]                Mapping Count : 00000000
[0B4h 0180   4]               Mapping Offset : 00000000

[0B8h 0184   4]                     ItsCount : 00000001
[0BCh 0188   4]                  Identifiers : 00000007

[0C0h 0192   1]                         Type : 02
[0C1h 0193   2]                       Length : 0038
[0C3h 0195   1]                     Revision : 01
[0C4h 0196   4]                     Reserved : 00000000
[0C8h 0200   4]                Mapping Count : 00000001
[0CCh 0204   4]               Mapping Offset : 00000024

[0D0h 0208   8]            Memory Properties : [IORT Memory Access Properties]
[0D0h 0208   4]              Cache Coherency : 00000001
[0D4h 0212   1]        Hints (decoded below) : 00
                                   Transient : 0
                              Write Allocate : 0
                               Read Allocate : 0
                                    Override : 0
[0D5h 0213   2]                     Reserved : 0000
[0D7h 0215   1] Memory Flags (decoded below) : 03
                                   Coherency : 1
                            Device Attribute : 1
[0D8h 0216   4]                ATS Attribute : 00000000
[0DCh 0220   4]           PCI Segment Number : 0000000C
[0E0h 0224   1]            Memory Size Limit : 40
[0E1h 0225   3]                     Reserved : 000000

[0E4h 0228   4]                   Input base : 00000000
[0E8h 0232   4]                     ID Count : 0000FFFF
[0ECh 0236   4]                  Output Base : 00000000
[0F0h 0240   4]             Output Reference : 00000210
[0F4h 0244   4]        Flags (decoded below) : 00000000
                              Single Mapping : 0

[0F8h 0248   1]                         Type : 02
[0F9h 0249   2]                       Length : 0038
[0FBh 0251   1]                     Revision : 01
[0FCh 0252   4]                     Reserved : 00000000
[100h 0256   4]                Mapping Count : 00000001
[104h 0260   4]               Mapping Offset : 00000024

[108h 0264   8]            Memory Properties : [IORT Memory Access Properties]
[108h 0264   4]              Cache Coherency : 00000001
[10Ch 0268   1]        Hints (decoded below) : 00
                                   Transient : 0
                              Write Allocate : 0
                               Read Allocate : 0
                                    Override : 0
[10Dh 0269   2]                     Reserved : 0000
[10Fh 0271   1] Memory Flags (decoded below) : 03
                                   Coherency : 1
                            Device Attribute : 1
[110h 0272   4]                ATS Attribute : 00000000
[114h 0276   4]           PCI Segment Number : 0000000D
[118h 0280   1]            Memory Size Limit : 40
[119h 0281   3]                     Reserved : 000000

[11Ch 0284   4]                   Input base : 00000000
[120h 0288   4]                     ID Count : 0000FFFF
[124h 0292   4]                  Output Base : 00000000
[128h 0296   4]             Output Reference : 0000027C
[12Ch 0300   4]        Flags (decoded below) : 00000000
                              Single Mapping : 0

[130h 0304   1]                         Type : 02
[131h 0305   2]                       Length : 0038
[133h 0307   1]                     Revision : 01
[134h 0308   4]                     Reserved : 00000000
[138h 0312   4]                Mapping Count : 00000001
[13Ch 0316   4]               Mapping Offset : 00000024

[140h 0320   8]            Memory Properties : [IORT Memory Access Properties]
[140h 0320   4]              Cache Coherency : 00000001
[144h 0324   1]        Hints (decoded below) : 00
                                   Transient : 0
                              Write Allocate : 0
                               Read Allocate : 0
                                    Override : 0
[145h 0325   2]                     Reserved : 0000
[147h 0327   1] Memory Flags (decoded below) : 03
                                   Coherency : 1
                            Device Attribute : 1
[148h 0328   4]                ATS Attribute : 00000000
[14Ch 0332   4]           PCI Segment Number : 00000000
[150h 0336   1]            Memory Size Limit : 40
[151h 0337   3]                     Reserved : 000000

[154h 0340   4]                   Input base : 00000000
[158h 0344   4]                     ID Count : 0000FFFF
[15Ch 0348   4]                  Output Base : 00000000
[160h 0352   4]             Output Reference : 000002E8
[164h 0356   4]        Flags (decoded below) : 00000000
                              Single Mapping : 0

[168h 0360   1]                         Type : 02
[169h 0361   2]                       Length : 0038
[16Bh 0363   1]                     Revision : 01
[16Ch 0364   4]                     Reserved : 00000000
[170h 0368   4]                Mapping Count : 00000001
[174h 0372   4]               Mapping Offset : 00000024

[178h 0376   8]            Memory Properties : [IORT Memory Access Properties]
[178h 0376   4]              Cache Coherency : 00000001
[17Ch 0380   1]        Hints (decoded below) : 00
                                   Transient : 0
                              Write Allocate : 0
                               Read Allocate : 0
                                    Override : 0
[17Dh 0381   2]                     Reserved : 0000
[17Fh 0383   1] Memory Flags (decoded below) : 03
                                   Coherency : 1
                            Device Attribute : 1
[180h 0384   4]                ATS Attribute : 00000000
[184h 0388   4]           PCI Segment Number : 00000002
[188h 0392   1]            Memory Size Limit : 40
[189h 0393   3]                     Reserved : 000000

[18Ch 0396   4]                   Input base : 00000000
[190h 0400   4]                     ID Count : 0000FFFF
[194h 0404   4]                  Output Base : 00000000
[198h 0408   4]             Output Reference : 00000354
[19Ch 0412   4]        Flags (decoded below) : 00000000
                              Single Mapping : 0

[1A0h 0416   1]                         Type : 02
[1A1h 0417   2]                       Length : 0038
[1A3h 0419   1]                     Revision : 01
[1A4h 0420   4]                     Reserved : 00000000
[1A8h 0424   4]                Mapping Count : 00000001
[1ACh 0428   4]               Mapping Offset : 00000024

[1B0h 0432   8]            Memory Properties : [IORT Memory Access Properties]
[1B0h 0432   4]              Cache Coherency : 00000001
[1B4h 0436   1]        Hints (decoded below) : 00
                                   Transient : 0
                              Write Allocate : 0
                               Read Allocate : 0
                                    Override : 0
[1B5h 0437   2]                     Reserved : 0000
[1B7h 0439   1] Memory Flags (decoded below) : 03
                                   Coherency : 1
                            Device Attribute : 1
[1B8h 0440   4]                ATS Attribute : 00000000
[1BCh 0444   4]           PCI Segment Number : 00000004
[1C0h 0448   1]            Memory Size Limit : 40
[1C1h 0449   3]                     Reserved : 000000

[1C4h 0452   4]                   Input base : 00000000
[1C8h 0456   4]                     ID Count : 0000FFFF
[1CCh 0460   4]                  Output Base : 00000000
[1D0h 0464   4]             Output Reference : 000003C0
[1D4h 0468   4]        Flags (decoded below) : 00000000
                              Single Mapping : 0

[1D8h 0472   1]                         Type : 02
[1D9h 0473   2]                       Length : 0038
[1DBh 0475   1]                     Revision : 01
[1DCh 0476   4]                     Reserved : 00000000
[1E0h 0480   4]                Mapping Count : 00000001
[1E4h 0484   4]               Mapping Offset : 00000024

[1E8h 0488   8]            Memory Properties : [IORT Memory Access Properties]
[1E8h 0488   4]              Cache Coherency : 00000001
[1ECh 0492   1]        Hints (decoded below) : 00
                                   Transient : 0
                              Write Allocate : 0
                               Read Allocate : 0
                                    Override : 0
[1EDh 0493   2]                     Reserved : 0000
[1EFh 0495   1] Memory Flags (decoded below) : 03
                                   Coherency : 1
                            Device Attribute : 1
[1F0h 0496   4]                ATS Attribute : 00000000
[1F4h 0500   4]           PCI Segment Number : 00000005
[1F8h 0504   1]            Memory Size Limit : 40
[1F9h 0505   3]                     Reserved : 000000

[1FCh 0508   4]                   Input base : 00000000
[200h 0512   4]                     ID Count : 0000FFFF
[204h 0516   4]                  Output Base : 00000000
[208h 0520   4]             Output Reference : 0000042C
[20Ch 0524   4]        Flags (decoded below) : 00000000
                              Single Mapping : 0

[210h 0528   1]                         Type : 04
[211h 0529   2]                       Length : 006C
[213h 0531   1]                     Revision : 02
[214h 0532   4]                     Reserved : 00000000
[218h 0536   4]                Mapping Count : 00000002
[21Ch 0540   4]               Mapping Offset : 00000044

[220h 0544   8]                 Base Address : 000033FFE0000000
[228h 0552   4]        Flags (decoded below) : 00000008
                             COHACC Override : 0
                               HTTU Override : 0
                      Proximity Domain Valid : 1
[22Ch 0556   4]                     Reserved : 00000000
[230h 0560   8]                VATOS Address : 0000000000000000
[238h 0568   4]                        Model : 00000000
[23Ch 0572   4]                   Event GSIV : 00000000
[240h 0576   4]                     PRI GSIV : 00000000
[244h 0580   4]                    GERR GSIV : 00000000
[248h 0584   4]                    Sync GSIV : 00000000
[24Ch 0588   4]             Proximity Domain : 00000000
[250h 0592   4]      Device ID Mapping Index : 00000001

[254h 0596   4]                   Input base : 00000000
[258h 0600   4]                     ID Count : 0000FFFF
[25Ch 0604   4]                  Output Base : 00000000
[260h 0608   4]             Output Reference : 00000030
[264h 0612   4]        Flags (decoded below) : 00000000
                              Single Mapping : 0

[268h 0616   4]                   Input base : 00000000
[26Ch 0620   4]                     ID Count : 00000001
[270h 0624   4]                  Output Base : 00000000
[274h 0628   4]             Output Reference : 00000030
[278h 0632   4]        Flags (decoded below) : 00000001
                              Single Mapping : 1

[27Ch 0636   1]                         Type : 04
[27Dh 0637   2]                       Length : 006C
[27Fh 0639   1]                     Revision : 02
[280h 0640   4]                     Reserved : 00000000
[284h 0644   4]                Mapping Count : 00000002
[288h 0648   4]               Mapping Offset : 00000044

[28Ch 0652   8]                 Base Address : 000037FFE0000000
[294h 0660   4]        Flags (decoded below) : 00000008
                             COHACC Override : 0
                               HTTU Override : 0
                      Proximity Domain Valid : 1
[298h 0664   4]                     Reserved : 00000000
[29Ch 0668   8]                VATOS Address : 0000000000000000
[2A4h 0676   4]                        Model : 00000000
[2A8h 0680   4]                   Event GSIV : 00000000
[2ACh 0684   4]                     PRI GSIV : 00000000
[2B0h 0688   4]                    GERR GSIV : 00000000
[2B4h 0692   4]                    Sync GSIV : 00000000
[2B8h 0696   4]             Proximity Domain : 00000000
[2BCh 0700   4]      Device ID Mapping Index : 00000001

[2C0h 0704   4]                   Input base : 00000000
[2C4h 0708   4]                     ID Count : 0000FFFF
[2C8h 0712   4]                  Output Base : 00010000
[2CCh 0716   4]             Output Reference : 00000048
[2D0h 0720   4]        Flags (decoded below) : 00000000
                              Single Mapping : 0

[2D4h 0724   4]                   Input base : 00000000
[2D8h 0728   4]                     ID Count : 00000001
[2DCh 0732   4]                  Output Base : 00010000
[2E0h 0736   4]             Output Reference : 00000048
[2E4h 0740   4]        Flags (decoded below) : 00000001
                              Single Mapping : 1

[2E8h 0744   1]                         Type : 04
[2E9h 0745   2]                       Length : 006C
[2EBh 0747   1]                     Revision : 02
[2ECh 0748   4]                     Reserved : 00000000
[2F0h 0752   4]                Mapping Count : 00000002
[2F4h 0756   4]               Mapping Offset : 00000044

[2F8h 0760   8]                 Base Address : 00003FFFE0000000
[300h 0768   4]        Flags (decoded below) : 00000008
                             COHACC Override : 0
                               HTTU Override : 0
                      Proximity Domain Valid : 1
[304h 0772   4]                     Reserved : 00000000
[308h 0776   8]                VATOS Address : 0000000000000000
[310h 0784   4]                        Model : 00000000
[314h 0788   4]                   Event GSIV : 00000000
[318h 0792   4]                     PRI GSIV : 00000000
[31Ch 0796   4]                    GERR GSIV : 00000000
[320h 0800   4]                    Sync GSIV : 00000000
[324h 0804   4]             Proximity Domain : 00000000
[328h 0808   4]      Device ID Mapping Index : 00000001

[32Ch 0812   4]                   Input base : 00000000
[330h 0816   4]                     ID Count : 0000FFFF
[334h 0820   4]                  Output Base : 00030000
[338h 0824   4]             Output Reference : 00000060
[33Ch 0828   4]        Flags (decoded below) : 00000000
                              Single Mapping : 0

[340h 0832   4]                   Input base : 00000000
[344h 0836   4]                     ID Count : 00000001
[348h 0840   4]                  Output Base : 00030000
[34Ch 0844   4]             Output Reference : 00000060
[350h 0848   4]        Flags (decoded below) : 00000001
                              Single Mapping : 1

[354h 0852   1]                         Type : 04
[355h 0853   2]                       Length : 006C
[357h 0855   1]                     Revision : 02
[358h 0856   4]                     Reserved : 00000000
[35Ch 0860   4]                Mapping Count : 00000002
[360h 0864   4]               Mapping Offset : 00000044

[364h 0868   8]                 Base Address : 000023FFE0000000
[36Ch 0876   4]        Flags (decoded below) : 00000008
                             COHACC Override : 0
                               HTTU Override : 0
                      Proximity Domain Valid : 1
[370h 0880   4]                     Reserved : 00000000
[374h 0884   8]                VATOS Address : 0000000000000000
[37Ch 0892   4]                        Model : 00000000
[380h 0896   4]                   Event GSIV : 00000000
[384h 0900   4]                     PRI GSIV : 00000000
[388h 0904   4]                    GERR GSIV : 00000000
[38Ch 0908   4]                    Sync GSIV : 00000000
[390h 0912   4]             Proximity Domain : 00000000
[394h 0916   4]      Device ID Mapping Index : 00000001

[398h 0920   4]                   Input base : 00000000
[39Ch 0924   4]                     ID Count : 0000FFFF
[3A0h 0928   4]                  Output Base : 00040000
[3A4h 0932   4]             Output Reference : 00000078
[3A8h 0936   4]        Flags (decoded below) : 00000000
                              Single Mapping : 0

[3ACh 0940   4]                   Input base : 00000000
[3B0h 0944   4]                     ID Count : 00000001
[3B4h 0948   4]                  Output Base : 00040000
[3B8h 0952   4]             Output Reference : 00000078
[3BCh 0956   4]        Flags (decoded below) : 00000001
                              Single Mapping : 1

[3C0h 0960   1]                         Type : 04
[3C1h 0961   2]                       Length : 006C
[3C3h 0963   1]                     Revision : 02
[3C4h 0964   4]                     Reserved : 00000000
[3C8h 0968   4]                Mapping Count : 00000002
[3CCh 0972   4]               Mapping Offset : 00000044

[3D0h 0976   8]                 Base Address : 00002BFFE0000000
[3D8h 0984   4]        Flags (decoded below) : 00000008
                             COHACC Override : 0
                               HTTU Override : 0
                      Proximity Domain Valid : 1
[3DCh 0988   4]                     Reserved : 00000000
[3E0h 0992   8]                VATOS Address : 0000000000000000
[3E8h 1000   4]                        Model : 00000000
[3ECh 1004   4]                   Event GSIV : 00000000
[3F0h 1008   4]                     PRI GSIV : 00000000
[3F4h 1012   4]                    GERR GSIV : 00000000
[3F8h 1016   4]                    Sync GSIV : 00000000
[3FCh 1020   4]             Proximity Domain : 00000000
[400h 1024   4]      Device ID Mapping Index : 00000001

[404h 1028   4]                   Input base : 00000000
[408h 1032   4]                     ID Count : 0000FFFF
[40Ch 1036   4]                  Output Base : 00060000
[410h 1040   4]             Output Reference : 00000090
[414h 1044   4]        Flags (decoded below) : 00000000
                              Single Mapping : 0

[418h 1048   4]                   Input base : 00000000
[41Ch 1052   4]                     ID Count : 00000001
[420h 1056   4]                  Output Base : 00060000
[424h 1060   4]             Output Reference : 00000090
[428h 1064   4]        Flags (decoded below) : 00000001
                              Single Mapping : 1

[42Ch 1068   1]                         Type : 04
[42Dh 1069   2]                       Length : 006C
[42Fh 1071   1]                     Revision : 02
[430h 1072   4]                     Reserved : 00000000
[434h 1076   4]                Mapping Count : 00000002
[438h 1080   4]               Mapping Offset : 00000044

[43Ch 1084   8]                 Base Address : 00002FFFE0000000
[444h 1092   4]        Flags (decoded below) : 00000008
                             COHACC Override : 0
                               HTTU Override : 0
                      Proximity Domain Valid : 1
[448h 1096   4]                     Reserved : 00000000
[44Ch 1100   8]                VATOS Address : 0000000000000000
[454h 1108   4]                        Model : 00000000
[458h 1112   4]                   Event GSIV : 00000000
[45Ch 1116   4]                     PRI GSIV : 00000000
[460h 1120   4]                    GERR GSIV : 00000000
[464h 1124   4]                    Sync GSIV : 00000000
[468h 1128   4]             Proximity Domain : 00000000
[46Ch 1132   4]      Device ID Mapping Index : 00000001

[470h 1136   4]                   Input base : 00000000
[474h 1140   4]                     ID Count : 0000FFFF
[478h 1144   4]                  Output Base : 00070000
[47Ch 1148   4]             Output Reference : 000000A8
[480h 1152   4]        Flags (decoded below) : 00000000
                              Single Mapping : 0

[484h 1156   4]                   Input base : 00000000
[488h 1160   4]                     ID Count : 00000001
[48Ch 1164   4]                  Output Base : 00070000
[490h 1168   4]             Output Reference : 000000A8
[494h 1172   4]        Flags (decoded below) : 00000001
                              Single Mapping : 1

Raw Table Data: Length 1176 (0x498)

    0000: 49 4F 52 54 98 04 00 00 00 95 41 6D 70 65 72 65  // IORT......Ampere
    0010: 41 6C 74 72 61 20 20 20 02 00 00 00 41 4D 50 2E  // Altra   ....AMP.
    0020: 13 00 00 01 12 00 00 00 30 00 00 00 00 00 00 00  // ........0.......
    0030: 00 18 00 00 00 00 00 00 00 00 00 00 00 00 00 00  // ................
    0040: 01 00 00 00 00 00 00 00 00 18 00 00 00 00 00 00  // ................
    0050: 00 00 00 00 00 00 00 00 01 00 00 00 01 00 00 00  // ................
    0060: 00 18 00 00 00 00 00 00 00 00 00 00 00 00 00 00  // ................
    0070: 01 00 00 00 03 00 00 00 00 18 00 00 00 00 00 00  // ................
    0080: 00 00 00 00 00 00 00 00 01 00 00 00 04 00 00 00  // ................
    0090: 00 18 00 00 00 00 00 00 00 00 00 00 00 00 00 00  // ................
    00A0: 01 00 00 00 06 00 00 00 00 18 00 00 00 00 00 00  // ................
    00B0: 00 00 00 00 00 00 00 00 01 00 00 00 07 00 00 00  // ................
    00C0: 02 38 00 01 00 00 00 00 01 00 00 00 24 00 00 00  // .8..........$...
    00D0: 01 00 00 00 00 00 00 03 00 00 00 00 0C 00 00 00  // ................
    00E0: 40 00 00 00 00 00 00 00 FF FF 00 00 00 00 00 00  // @...............
    00F0: 10 02 00 00 00 00 00 00 02 38 00 01 00 00 00 00  // .........8......
    0100: 01 00 00 00 24 00 00 00 01 00 00 00 00 00 00 03  // ....$...........
    0110: 00 00 00 00 0D 00 00 00 40 00 00 00 00 00 00 00  // ........@.......
    0120: FF FF 00 00 00 00 00 00 7C 02 00 00 00 00 00 00  // ........|.......
    0130: 02 38 00 01 00 00 00 00 01 00 00 00 24 00 00 00  // .8..........$...
    0140: 01 00 00 00 00 00 00 03 00 00 00 00 00 00 00 00  // ................
    0150: 40 00 00 00 00 00 00 00 FF FF 00 00 00 00 00 00  // @...............
    0160: E8 02 00 00 00 00 00 00 02 38 00 01 00 00 00 00  // .........8......
    0170: 01 00 00 00 24 00 00 00 01 00 00 00 00 00 00 03  // ....$...........
    0180: 00 00 00 00 02 00 00 00 40 00 00 00 00 00 00 00  // ........@.......
    0190: FF FF 00 00 00 00 00 00 54 03 00 00 00 00 00 00  // ........T.......
    01A0: 02 38 00 01 00 00 00 00 01 00 00 00 24 00 00 00  // .8..........$...
    01B0: 01 00 00 00 00 00 00 03 00 00 00 00 04 00 00 00  // ................
    01C0: 40 00 00 00 00 00 00 00 FF FF 00 00 00 00 00 00  // @...............
    01D0: C0 03 00 00 00 00 00 00 02 38 00 01 00 00 00 00  // .........8......
    01E0: 01 00 00 00 24 00 00 00 01 00 00 00 00 00 00 03  // ....$...........
    01F0: 00 00 00 00 05 00 00 00 40 00 00 00 00 00 00 00  // ........@.......
    0200: FF FF 00 00 00 00 00 00 2C 04 00 00 00 00 00 00  // ........,.......
    0210: 04 6C 00 02 00 00 00 00 02 00 00 00 44 00 00 00  // .l..........D...
    0220: 00 00 00 E0 FF 33 00 00 08 00 00 00 00 00 00 00  // .....3..........
    0230: 00 00 00 00 00 00 00 00 00 00 00 00 00 00 00 00  // ................
    0240: 00 00 00 00 00 00 00 00 00 00 00 00 00 00 00 00  // ................
    0250: 01 00 00 00 00 00 00 00 FF FF 00 00 00 00 00 00  // ................
    0260: 30 00 00 00 00 00 00 00 00 00 00 00 01 00 00 00  // 0...............
    0270: 00 00 00 00 30 00 00 00 01 00 00 00 04 6C 00 02  // ....0........l..
    0280: 00 00 00 00 02 00 00 00 44 00 00 00 00 00 00 E0  // ........D.......
    0290: FF 37 00 00 08 00 00 00 00 00 00 00 00 00 00 00  // .7..............
    02A0: 00 00 00 00 00 00 00 00 00 00 00 00 00 00 00 00  // ................
    02B0: 00 00 00 00 00 00 00 00 00 00 00 00 01 00 00 00  // ................
    02C0: 00 00 00 00 FF FF 00 00 00 00 01 00 48 00 00 00  // ............H...
    02D0: 00 00 00 00 00 00 00 00 01 00 00 00 00 00 01 00  // ................
    02E0: 48 00 00 00 01 00 00 00 04 6C 00 02 00 00 00 00  // H........l......
    02F0: 02 00 00 00 44 00 00 00 00 00 00 E0 FF 3F 00 00  // ....D........?..
    0300: 08 00 00 00 00 00 00 00 00 00 00 00 00 00 00 00  // ................
    0310: 00 00 00 00 00 00 00 00 00 00 00 00 00 00 00 00  // ................
    0320: 00 00 00 00 00 00 00 00 01 00 00 00 00 00 00 00  // ................
    0330: FF FF 00 00 00 00 03 00 60 00 00 00 00 00 00 00  // ........`.......
    0340: 00 00 00 00 01 00 00 00 00 00 03 00 60 00 00 00  // ............`...
    0350: 01 00 00 00 04 6C 00 02 00 00 00 00 02 00 00 00  // .....l..........
    0360: 44 00 00 00 00 00 00 E0 FF 23 00 00 08 00 00 00  // D........#......
    0370: 00 00 00 00 00 00 00 00 00 00 00 00 00 00 00 00  // ................
    0380: 00 00 00 00 00 00 00 00 00 00 00 00 00 00 00 00  // ................
    0390: 00 00 00 00 01 00 00 00 00 00 00 00 FF FF 00 00  // ................
    03A0: 00 00 04 00 78 00 00 00 00 00 00 00 00 00 00 00  // ....x...........
    03B0: 01 00 00 00 00 00 04 00 78 00 00 00 01 00 00 00  // ........x.......
    03C0: 04 6C 00 02 00 00 00 00 02 00 00 00 44 00 00 00  // .l..........D...
    03D0: 00 00 00 E0 FF 2B 00 00 08 00 00 00 00 00 00 00  // .....+..........
    03E0: 00 00 00 00 00 00 00 00 00 00 00 00 00 00 00 00  // ................
    03F0: 00 00 00 00 00 00 00 00 00 00 00 00 00 00 00 00  // ................
    0400: 01 00 00 00 00 00 00 00 FF FF 00 00 00 00 06 00  // ................
    0410: 90 00 00 00 00 00 00 00 00 00 00 00 01 00 00 00  // ................
    0420: 00 00 06 00 90 00 00 00 01 00 00 00 04 6C 00 02  // .............l..
    0430: 00 00 00 00 02 00 00 00 44 00 00 00 00 00 00 E0  // ........D.......
    0440: FF 2F 00 00 08 00 00 00 00 00 00 00 00 00 00 00  // ./..............
    0450: 00 00 00 00 00 00 00 00 00 00 00 00 00 00 00 00  // ................
    0460: 00 00 00 00 00 00 00 00 00 00 00 00 01 00 00 00  // ................
    0470: 00 00 00 00 FF FF 00 00 00 00 07 00 A8 00 00 00  // ................
    0480: 00 00 00 00 00 00 00 00 01 00 00 00 00 00 07 00  // ................
    0490: A8 00 00 00 01 00 00 00                          // ........
